target datalayout = "e-m:e-p270:32:32-p271:32:32-p272:64:64-i64:64-i128:128-f80:128-n8:16:32:64-S128"
target triple = "x86_64-pc-linux-gnu"

%struct.TSQueryData = type { i32, i32, [0 x i8] }
%struct.QueryOperand = type { i8, i8, i8, i32, i32 }
%union.QueryItem = type { %struct.QueryOperand }

; Function Attrs: nounwind uwtable
define dso_local i64 @makeTSQuerySign(ptr noundef %0) #0 {
  %2 = alloca ptr, align 8
  %3 = alloca i32, align 4
  %4 = alloca ptr, align 8
  %5 = alloca i64, align 8
  store ptr %0, ptr %2, align 8
  call void @llvm.lifetime.start.p0(i64 4, ptr %3) #7
  call void @llvm.lifetime.start.p0(i64 8, ptr %4) #7
  %6 = load ptr, ptr %2, align 8
  %7 = getelementptr inbounds nuw i8, ptr %6, i64 8
  store ptr %7, ptr %4, align 8
  call void @llvm.lifetime.start.p0(i64 8, ptr %5) #7
  store i64 0, ptr %5, align 8
  store i32 0, ptr %3, align 4
  br label %8

8:                                                ; preds = %31, %1
  %9 = load i32, ptr %3, align 4
  %10 = load ptr, ptr %2, align 8
  %11 = getelementptr inbounds nuw %struct.TSQueryData, ptr %10, i32 0, i32 1
  %12 = load i32, ptr %11, align 4
  %13 = icmp slt i32 %9, %12
  br i1 %13, label %14, label %34

14:                                               ; preds = %8
  %15 = load ptr, ptr %4, align 8
  %16 = load i8, ptr %15, align 4
  %17 = sext i8 %16 to i32
  %18 = icmp eq i32 %17, 1
  br i1 %18, label %19, label %28

19:                                               ; preds = %14
  %20 = load ptr, ptr %4, align 8
  %21 = getelementptr inbounds nuw %struct.QueryOperand, ptr %20, i32 0, i32 3
  %22 = load i32, ptr %21, align 4
  %23 = zext i32 %22 to i64
  %24 = urem i64 %23, 64
  %25 = shl i64 1, %24
  %26 = load i64, ptr %5, align 8
  %27 = or i64 %26, %25
  store i64 %27, ptr %5, align 8
  br label %28

28:                                               ; preds = %19, %14
  %29 = load ptr, ptr %4, align 8
  %30 = getelementptr inbounds nuw %union.QueryItem, ptr %29, i32 1
  store ptr %30, ptr %4, align 8
  br label %31

31:                                               ; preds = %28
  %32 = load i32, ptr %3, align 4
  %33 = add i32 %32, 1
  store i32 %33, ptr %3, align 4
  br label %8, !llvm.loop !6

34:                                               ; preds = %8
  %35 = load i64, ptr %5, align 8
  call void @llvm.lifetime.end.p0(i64 8, ptr %5) #7
  call void @llvm.lifetime.end.p0(i64 8, ptr %4) #7
  call void @llvm.lifetime.end.p0(i64 4, ptr %3) #7
  ret i64 %35
}