; Function Attrs: nofree norecurse nosync nounwind memory(argmem: read) uwtable
define dso_local i64 @makeTSQuerySign(ptr noundef readonly captures(none) %0) local_unnamed_addr #4 {
  %2 = getelementptr inbounds nuw i8, ptr %0, i64 4
  %3 = load i32, ptr %2, align 4
  %4 = icmp sgt i32 %3, 0
  br i1 %4, label %.lr.ph.preheader, label %._crit_edge

.lr.ph.preheader:                                 ; preds = %1
  %5 = getelementptr inbounds nuw i8, ptr %0, i64 8
  br label %.lr.ph

.lr.ph:                                           ; preds = %.lr.ph.preheader, %15
  %.012 = phi i64 [ %.1, %15 ], [ 0, %.lr.ph.preheader ]
  %.0811 = phi ptr [ %16, %15 ], [ %5, %.lr.ph.preheader ]
  %.0910 = phi i32 [ %17, %15 ], [ 0, %.lr.ph.preheader ]
  %6 = load i8, ptr %.0811, align 4
  %7 = icmp eq i8 %6, 1
  br i1 %7, label %8, label %15

8:                                                ; preds = %.lr.ph
  %9 = getelementptr inbounds nuw i8, ptr %.0811, i64 4
  %10 = load i32, ptr %9, align 4
  %11 = and i32 %10, 63
  %12 = zext nneg i32 %11 to i64
  %13 = shl nuw i64 1, %12
  %14 = or i64 %13, %.012
  br label %15

15:                                               ; preds = %8, %.lr.ph
  %.1 = phi i64 [ %14, %8 ], [ %.012, %.lr.ph ]
  %16 = getelementptr inbounds nuw i8, ptr %.0811, i64 12
  %17 = add nuw nsw i32 %.0910, 1
  %exitcond.not = icmp eq i32 %17, %3
  br i1 %exitcond.not, label %._crit_edge, label %.lr.ph, !llvm.loop !4

._crit_edge:                                      ; preds = %15, %1
  %.0.lcssa = phi i64 [ 0, %1 ], [ %.1, %15 ]
  ret i64 %.0.lcssa
}